target datalayout = "e-m:e-p270:32:32-p271:32:32-p272:64:64-i64:64-i128:128-f80:128-n8:16:32:64-S128"
target triple = "x86_64-pc-linux-gnu"

; Function Attrs: nounwind uwtable
define internal i32 @_convert_dict_yaml(ptr noundef %0, ptr noundef %1, ptr noundef %2) #0 {
  %4 = alloca i32, align 4
  %5 = alloca ptr, align 8
  %6 = alloca ptr, align 8
  %7 = alloca ptr, align 8
  %8 = alloca ptr, align 8
  %9 = alloca i32, align 4
  store ptr %0, ptr %5, align 8
  store ptr %1, ptr %6, align 8
  store ptr %2, ptr %7, align 8
  call void @llvm.lifetime.start.p0(i64 8, ptr %8) #6
  %10 = load ptr, ptr %7, align 8
  store ptr %10, ptr %8, align 8
  %11 = load ptr, ptr %5, align 8
  %12 = load ptr, ptr %8, align 8
  %13 = call i32 @_emit_string(ptr noundef %11, ptr noundef %12)
  %14 = icmp ne i32 %13, 0
  br i1 %14, label %15, label %16

15:                                               ; preds = %3
  store i32 4, ptr %4, align 4
  store i32 1, ptr %9, align 4
  br label %23

16:                                               ; preds = %3
  %17 = load ptr, ptr %6, align 8
  %18 = load ptr, ptr %8, align 8
  %19 = call i32 @_data_to_yaml(ptr noundef %17, ptr noundef %18)
  %20 = icmp ne i32 %19, 0
  br i1 %20, label %21, label %22

21:                                               ; preds = %16
  store i32 4, ptr %4, align 4
  store i32 1, ptr %9, align 4
  br label %23

22:                                               ; preds = %16
  store i32 1, ptr %4, align 4
  store i32 1, ptr %9, align 4
  br label %23

23:                                               ; preds = %22, %21, %15
  call void @llvm.lifetime.end.p0(i64 8, ptr %8) #6
  %24 = load i32, ptr %4, align 4
  ret i32 %24
}