; Function Attrs: nounwind uwtable
define internal range(i32 1, 5) i32 @_convert_dict_yaml(ptr noundef %0, ptr noundef %1, ptr noundef %2) #0 {
  %4 = tail call fastcc i32 @_emit_string(ptr noundef %0, ptr noundef %2)
  %.not = icmp eq i32 %4, 0
  br i1 %.not, label %5, label %7

5:                                                ; preds = %3
  %6 = tail call fastcc i32 @_data_to_yaml(ptr noundef %1, ptr noundef %2)
  %.not5 = icmp eq i32 %6, 0
  %. = select i1 %.not5, i32 1, i32 4
  br label %7

7:                                                ; preds = %5, %3
  %.0 = phi i32 [ 4, %3 ], [ %., %5 ]
  ret i32 %.0
}